target datalayout = "e-m:e-p270:32:32-p271:32:32-p272:64:64-i64:64-i128:128-f80:128-n8:16:32:64-S128"
target triple = "x86_64-pc-linux-gnu"

%struct.partition_info_msg = type { i64, i32, ptr }
%struct.partition_info = type { ptr, ptr, ptr, ptr, ptr, ptr, ptr, i16, i32, i64, i32, ptr, ptr, i32, i32, ptr, ptr, i32, i32, i64, i32, i16, i32, i32, ptr, ptr, ptr, ptr, i16, i16, i16, i16, ptr, i16, i16, i32, i16, i32, i32, ptr }
%struct.slurm_msg = type { %struct.sockaddr_storage, ptr, i32, i32, i32, i8, i32, i8, i32, ptr, ptr, i32, ptr, ptr, i16, i8, i16, i16, %struct.forward, ptr, %struct.sockaddr_storage, ptr }
%struct.forward = type { %struct.slurm_node_alias_addrs_t, i16, i16, ptr, i32, i16, i16 }
%struct.slurm_node_alias_addrs_t = type { i64, ptr, ptr, i32, ptr }
%struct.sockaddr_storage = type { i16, [118 x i8], i64 }
%struct.slurmdb_cluster_rec = type { ptr, i16, i64, %struct.sockaddr_storage, ptr, i32, i16, ptr, i16, %struct.slurmdb_cluster_fed_t, i32, %union.pthread_mutex_t, ptr, ptr, ptr, i16, ptr, ptr }
%struct.slurmdb_cluster_fed_t = type { ptr, i32, ptr, ptr, ptr, i32, i8, i8 }
%union.pthread_mutex_t = type { %struct.__pthread_mutex_s }
%struct.__pthread_mutex_s = type { i32, i32, i32, i32, i32, i16, i16, %struct.__pthread_internal_list }
%struct.__pthread_internal_list = type { ptr, ptr }
%struct.load_part_req_struct = type { ptr, i32, ptr, ptr, i16 }
%struct.load_part_resp_struct = type { i32, ptr }
%struct.return_code_msg = type { i32 }

@.str.91 = private unnamed_addr constant [17 x i8] c"partition_info.c\00", align 1
@.str.98 = private unnamed_addr constant [56 x i8] c"Error reading partition information from cluster %s: %s\00", align 1
@__func__._load_part_thread = private unnamed_addr constant [18 x i8] c"_load_part_thread\00", align 1

; Function Attrs: nounwind uwtable
define internal i32 @_load_cluster_parts(ptr noundef %0, ptr noundef %1, ptr noundef %2) #0 {
  %4 = alloca i32, align 4
  %5 = alloca ptr, align 8
  %6 = alloca ptr, align 8
  %7 = alloca ptr, align 8
  %8 = alloca %struct.slurm_msg, align 8
  %9 = alloca i32, align 4
  %10 = alloca i32, align 4
  store ptr %0, ptr %5, align 8
  store ptr %1, ptr %6, align 8
  store ptr %2, ptr %7, align 8
  call void @llvm.lifetime.start.p0(i64 424, ptr %8) #8
  call void @llvm.lifetime.start.p0(i64 4, ptr %9) #8
  call void @slurm_msg_t_init(ptr noundef %8)
  %11 = load ptr, ptr %5, align 8
  %12 = load ptr, ptr %7, align 8
  %13 = call i32 @slurm_send_recv_controller_msg(ptr noundef %11, ptr noundef %8, ptr noundef %12)
  %14 = icmp slt i32 %13, 0
  br i1 %14, label %15, label %16

15:                                               ; preds = %3
  store i32 -1, ptr %4, align 4
  store i32 1, ptr %10, align 4
  br label %50

16:                                               ; preds = %3
  %17 = getelementptr inbounds nuw %struct.slurm_msg, ptr %8, i32 0, i32 16
  %18 = load i16, ptr %17, align 4
  %19 = zext i16 %18 to i32
  switch i32 %19, label %44 [
    i32 2010, label %20
    i32 8001, label %24
  ]

20:                                               ; preds = %16
  %21 = getelementptr inbounds nuw %struct.slurm_msg, ptr %8, i32 0, i32 13
  %22 = load ptr, ptr %21, align 8
  %23 = load ptr, ptr %6, align 8
  store ptr %22, ptr %23, align 8
  br label %49

24:                                               ; preds = %16
  %25 = getelementptr inbounds nuw %struct.slurm_msg, ptr %8, i32 0, i32 13
  %26 = load ptr, ptr %25, align 8
  %27 = getelementptr inbounds nuw %struct.return_code_msg, ptr %26, i32 0, i32 0
  %28 = load i32, ptr %27, align 4
  store i32 %28, ptr %9, align 4
  %29 = getelementptr inbounds nuw %struct.slurm_msg, ptr %8, i32 0, i32 13
  %30 = load ptr, ptr %29, align 8
  call void @slurm_free_return_code_msg(ptr noundef %30)
  %31 = load i32, ptr %9, align 4
  %32 = icmp ne i32 %31, 0
  br i1 %32, label %33, label %42

33:                                               ; preds = %24
  br label %34

34:                                               ; preds = %33
  %35 = load i32, ptr %9, align 4
  %36 = call ptr @__errno_location() #9
  store i32 %35, ptr %36, align 4
  %37 = load i32, ptr %9, align 4
  %38 = icmp ne i32 %37, 0
  %39 = select i1 %38, i32 -1, i32 0
  store i32 %39, ptr %4, align 4
  store i32 1, ptr %10, align 4
  br label %50

40:                                               ; No predecessors!
  br label %41

41:                                               ; preds = %40
  br label %42

42:                                               ; preds = %41, %24
  %43 = load ptr, ptr %6, align 8
  store ptr null, ptr %43, align 8
  br label %49

44:                                               ; preds = %16
  br label %45

45:                                               ; preds = %44
  %46 = call ptr @__errno_location() #9
  store i32 1000, ptr %46, align 4
  store i32 -1, ptr %4, align 4
  store i32 1, ptr %10, align 4
  br label %50

47:                                               ; No predecessors!
  br label %48

48:                                               ; preds = %47
  br label %49

49:                                               ; preds = %48, %42, %20
  store i32 0, ptr %4, align 4
  store i32 1, ptr %10, align 4
  br label %50

50:                                               ; preds = %49, %45, %34, %15
  call void @llvm.lifetime.end.p0(i64 4, ptr %9) #8
  call void @llvm.lifetime.end.p0(i64 424, ptr %8) #8
  %51 = load i32, ptr %4, align 4
  ret i32 %51
}

; Function Attrs: nounwind uwtable
define internal ptr @_load_part_thread(ptr noundef %0) #0 {
  %2 = alloca ptr, align 8
  %3 = alloca ptr, align 8
  %4 = alloca ptr, align 8
  %5 = alloca ptr, align 8
  %6 = alloca i32, align 4
  %7 = alloca i32, align 4
  %8 = alloca ptr, align 8
  store ptr %0, ptr %2, align 8
  call void @llvm.lifetime.start.p0(i64 8, ptr %3) #8
  %9 = load ptr, ptr %2, align 8
  store ptr %9, ptr %3, align 8
  call void @llvm.lifetime.start.p0(i64 8, ptr %4) #8
  %10 = load ptr, ptr %3, align 8
  %11 = getelementptr inbounds nuw %struct.load_part_req_struct, ptr %10, i32 0, i32 0
  %12 = load ptr, ptr %11, align 8
  store ptr %12, ptr %4, align 8
  call void @llvm.lifetime.start.p0(i64 8, ptr %5) #8
  store ptr null, ptr %5, align 8
  call void @llvm.lifetime.start.p0(i64 4, ptr %6) #8
  call void @llvm.lifetime.start.p0(i64 4, ptr %7) #8
  %13 = load ptr, ptr %3, align 8
  %14 = getelementptr inbounds nuw %struct.load_part_req_struct, ptr %13, i32 0, i32 2
  %15 = load ptr, ptr %14, align 8
  %16 = load ptr, ptr %4, align 8
  %17 = call i32 @_load_cluster_parts(ptr noundef %15, ptr noundef %5, ptr noundef %16)
  store i32 %17, ptr %7, align 4
  %18 = icmp ne i32 %17, 0
  br i1 %18, label %22, label %19

19:                                               ; preds = %1
  %20 = load ptr, ptr %5, align 8
  %21 = icmp ne ptr %20, null
  br i1 %21, label %38, label %22

22:                                               ; preds = %19, %1
  br label %23

23:                                               ; preds = %22
  br label %24

24:                                               ; preds = %23
  %25 = call i32 @get_log_level()
  %26 = icmp sge i32 %25, 4
  br i1 %26, label %27, label %33

27:                                               ; preds = %24
  %28 = load ptr, ptr %4, align 8
  %29 = getelementptr inbounds nuw %struct.slurmdb_cluster_rec, ptr %28, i32 0, i32 12
  %30 = load ptr, ptr %29, align 8
  %31 = load i32, ptr %7, align 4
  %32 = call ptr @slurm_strerror(i32 noundef %31)
  call void (i32, ptr, ...) @log_var(i32 noundef 4, ptr noundef @.str.98, ptr noundef %30, ptr noundef %32)
  br label %33

33:                                               ; preds = %27, %24
  br label %34

34:                                               ; preds = %33
  br label %35

35:                                               ; preds = %34
  br label %36

36:                                               ; preds = %35
  br label %37

37:                                               ; preds = %36
  br label %85

38:                                               ; preds = %19
  call void @llvm.lifetime.start.p0(i64 8, ptr %8) #8
  store i32 0, ptr %6, align 4
  br label %39

39:                                               ; preds = %68, %38
  %40 = load i32, ptr %6, align 4
  %41 = load ptr, ptr %5, align 8
  %42 = getelementptr inbounds nuw %struct.partition_info_msg, ptr %41, i32 0, i32 1
  %43 = load i32, ptr %42, align 8
  %44 = icmp ult i32 %40, %43
  br i1 %44, label %45, label %71

45:                                               ; preds = %39
  %46 = load ptr, ptr %5, align 8
  %47 = getelementptr inbounds nuw %struct.partition_info_msg, ptr %46, i32 0, i32 2
  %48 = load ptr, ptr %47, align 8
  %49 = load i32, ptr %6, align 4
  %50 = sext i32 %49 to i64
  %51 = getelementptr inbounds %struct.partition_info, ptr %48, i64 %50
  %52 = getelementptr inbounds nuw %struct.partition_info, ptr %51, i32 0, i32 6
  %53 = load ptr, ptr %52, align 8
  %54 = icmp ne ptr %53, null
  br i1 %54, label %67, label %55

55:                                               ; preds = %45
  %56 = load ptr, ptr %4, align 8
  %57 = getelementptr inbounds nuw %struct.slurmdb_cluster_rec, ptr %56, i32 0, i32 12
  %58 = load ptr, ptr %57, align 8
  %59 = call ptr @xstrdup(ptr noundef %58)
  %60 = load ptr, ptr %5, align 8
  %61 = getelementptr inbounds nuw %struct.partition_info_msg, ptr %60, i32 0, i32 2
  %62 = load ptr, ptr %61, align 8
  %63 = load i32, ptr %6, align 4
  %64 = sext i32 %63 to i64
  %65 = getelementptr inbounds %struct.partition_info, ptr %62, i64 %64
  %66 = getelementptr inbounds nuw %struct.partition_info, ptr %65, i32 0, i32 6
  store ptr %59, ptr %66, align 8
  br label %67

67:                                               ; preds = %55, %45
  br label %68

68:                                               ; preds = %67
  %69 = load i32, ptr %6, align 4
  %70 = add nsw i32 %69, 1
  store i32 %70, ptr %6, align 4
  br label %39, !llvm.loop !16

71:                                               ; preds = %39
  %72 = call ptr @slurm_xcalloc(i64 noundef 1, i64 noundef 16, i1 noundef zeroext true, i1 noundef zeroext false, ptr noundef @.str.91, i32 noundef 508, ptr noundef @__func__._load_part_thread)
  store ptr %72, ptr %8, align 8
  %73 = load ptr, ptr %3, align 8
  %74 = getelementptr inbounds nuw %struct.load_part_req_struct, ptr %73, i32 0, i32 1
  %75 = load i32, ptr %74, align 8
  %76 = load ptr, ptr %8, align 8
  %77 = getelementptr inbounds nuw %struct.load_part_resp_struct, ptr %76, i32 0, i32 0
  store i32 %75, ptr %77, align 8
  %78 = load ptr, ptr %5, align 8
  %79 = load ptr, ptr %8, align 8
  %80 = getelementptr inbounds nuw %struct.load_part_resp_struct, ptr %79, i32 0, i32 1
  store ptr %78, ptr %80, align 8
  %81 = load ptr, ptr %3, align 8
  %82 = getelementptr inbounds nuw %struct.load_part_req_struct, ptr %81, i32 0, i32 3
  %83 = load ptr, ptr %82, align 8
  %84 = load ptr, ptr %8, align 8
  call void @list_append(ptr noundef %83, ptr noundef %84)
  call void @llvm.lifetime.end.p0(i64 8, ptr %8) #8
  br label %85

85:                                               ; preds = %71, %37
  call void @slurm_xfree(ptr noundef %2)
  call void @llvm.lifetime.end.p0(i64 4, ptr %7) #8
  call void @llvm.lifetime.end.p0(i64 4, ptr %6) #8
  call void @llvm.lifetime.end.p0(i64 8, ptr %5) #8
  call void @llvm.lifetime.end.p0(i64 8, ptr %4) #8
  call void @llvm.lifetime.end.p0(i64 8, ptr %3) #8
  ret ptr null
}