; Function Attrs: nounwind uwtable
define internal noalias noundef ptr @_load_part_thread(ptr noundef %0) #0 {
  %2 = alloca %struct.slurm_msg, align 8
  %3 = alloca ptr, align 8
  store ptr %0, ptr %3, align 8
  %4 = load ptr, ptr %0, align 8
  %5 = getelementptr inbounds nuw i8, ptr %0, i64 16
  %6 = load ptr, ptr %5, align 8
  call void @llvm.lifetime.start.p0(i64 424, ptr nonnull %2) #11
  call void @slurm_msg_t_init(ptr noundef nonnull %2) #11
  %7 = call i32 @slurm_send_recv_controller_msg(ptr noundef %6, ptr noundef nonnull %2, ptr noundef %4) #11
  %8 = icmp slt i32 %7, 0
  br i1 %8, label %_load_cluster_parts.exit.thread, label %9

9:                                                ; preds = %1
  %10 = getelementptr inbounds nuw i8, ptr %2, i64 212
  %11 = load i16, ptr %10, align 4
  switch i16 %11, label %_load_cluster_parts.exit.thread.sink.split [
    i16 2010, label %_load_cluster_parts.exit
    i16 8001, label %12
  ]

12:                                               ; preds = %9
  %13 = getelementptr inbounds nuw i8, ptr %2, i64 200
  %14 = load ptr, ptr %13, align 8
  %15 = load i32, ptr %14, align 4
  call void @slurm_free_return_code_msg(ptr noundef nonnull %14) #11
  %.not.i = icmp eq i32 %15, 0
  br i1 %.not.i, label %_load_cluster_parts.exit.thread, label %_load_cluster_parts.exit.thread.sink.split

_load_cluster_parts.exit.thread.sink.split:       ; preds = %9, %12
  %.sink = phi i32 [ %15, %12 ], [ 1000, %9 ]
  %16 = tail call ptr @__errno_location() #12
  store i32 %.sink, ptr %16, align 4
  br label %_load_cluster_parts.exit.thread

_load_cluster_parts.exit.thread:                  ; preds = %_load_cluster_parts.exit.thread.sink.split, %1, %12
  %.0.i.ph = phi i32 [ 0, %12 ], [ -1, %1 ], [ -1, %_load_cluster_parts.exit.thread.sink.split ]
  call void @llvm.lifetime.end.p0(i64 424, ptr nonnull %2) #11
  br label %23

_load_cluster_parts.exit:                         ; preds = %9
  %17 = getelementptr inbounds nuw i8, ptr %2, i64 200
  %18 = load ptr, ptr %17, align 8
  call void @llvm.lifetime.end.p0(i64 424, ptr nonnull %2) #11
  %.not23 = icmp eq ptr %18, null
  br i1 %.not23, label %23, label %.preheader

.preheader:                                       ; preds = %_load_cluster_parts.exit
  %19 = getelementptr inbounds nuw i8, ptr %18, i64 8
  %20 = load i32, ptr %19, align 8
  %.not25 = icmp eq i32 %20, 0
  br i1 %.not25, label %._crit_edge, label %.lr.ph

.lr.ph:                                           ; preds = %.preheader
  %21 = getelementptr inbounds nuw i8, ptr %18, i64 16
  %22 = getelementptr inbounds nuw i8, ptr %4, i64 280
  br label %30

23:                                               ; preds = %_load_cluster_parts.exit.thread, %_load_cluster_parts.exit
  %.0.i22 = phi i32 [ %.0.i.ph, %_load_cluster_parts.exit.thread ], [ 0, %_load_cluster_parts.exit ]
  %24 = call i32 @get_log_level() #11
  %25 = icmp sgt i32 %24, 3
  br i1 %25, label %26, label %50

26:                                               ; preds = %23
  %27 = getelementptr inbounds nuw i8, ptr %4, i64 280
  %28 = load ptr, ptr %27, align 8
  %29 = call ptr @slurm_strerror(i32 noundef %.0.i22) #11
  call void (i32, ptr, ...) @log_var(i32 noundef 4, ptr noundef nonnull @.str.98, ptr noundef %28, ptr noundef %29) #11
  br label %50

30:                                               ; preds = %.lr.ph, %40
  %31 = phi i32 [ %20, %.lr.ph ], [ %41, %40 ]
  %indvars.iv = phi i64 [ 0, %.lr.ph ], [ %indvars.iv.next, %40 ]
  %32 = load ptr, ptr %21, align 8
  %33 = getelementptr inbounds nuw %struct.partition_info, ptr %32, i64 %indvars.iv, i32 6
  %34 = load ptr, ptr %33, align 8
  %.not = icmp eq ptr %34, null
  br i1 %.not, label %35, label %40

35:                                               ; preds = %30
  %36 = load ptr, ptr %22, align 8
  %37 = call ptr @xstrdup(ptr noundef %36) #11
  %38 = load ptr, ptr %21, align 8
  %39 = getelementptr inbounds nuw %struct.partition_info, ptr %38, i64 %indvars.iv, i32 6
  store ptr %37, ptr %39, align 8
  %.pre = load i32, ptr %19, align 8
  br label %40

40:                                               ; preds = %30, %35
  %41 = phi i32 [ %31, %30 ], [ %.pre, %35 ]
  %indvars.iv.next = add nuw nsw i64 %indvars.iv, 1
  %42 = zext i32 %41 to i64
  %43 = icmp samesign ult i64 %indvars.iv.next, %42
  br i1 %43, label %30, label %._crit_edge, !llvm.loop !14

._crit_edge:                                      ; preds = %40, %.preheader
  %44 = call ptr @slurm_xcalloc(i64 noundef 1, i64 noundef 16, i1 noundef zeroext true, i1 noundef zeroext false, ptr noundef nonnull @.str.91, i32 noundef 508, ptr noundef nonnull @__func__._load_part_thread) #11
  %45 = getelementptr inbounds nuw i8, ptr %0, i64 8
  %46 = load i32, ptr %45, align 8
  store i32 %46, ptr %44, align 8
  %47 = getelementptr inbounds nuw i8, ptr %44, i64 8
  store ptr %18, ptr %47, align 8
  %48 = getelementptr inbounds nuw i8, ptr %0, i64 24
  %49 = load ptr, ptr %48, align 8
  call void @list_append(ptr noundef %49, ptr noundef nonnull %44) #11
  br label %50

50:                                               ; preds = %23, %26, %._crit_edge
  call void @slurm_xfree(ptr noundef nonnull %3) #11
  ret ptr null
}